Certificate:
    Data:
        Version: 3 (0x2)
        Serial Number: 4934 (0x1346)
        Signature Algorithm: md5WithRSAEncryption
        Issuer: C=US, ST=NY, O=Apache, OU=NOT FOR PRODUCTION, CN=TheRA
        Validity
            Not Before: May 25 05:09:52 2009 GMT
            Not After : May 24 05:09:52 2010 GMT
        Subject: C=US, ST=NY, O=Apache, OU=NOT FOR PRODUCTION, CN=Wibble
        Subject Public Key Info:
            Public Key Algorithm: dsaEncryption
            DSA Public Key:
                pub: 
                    32:8d:5e:05:e2:b9:bd:c1:83:d7:97:6b:34:40:7d:
                    4a:4d:67:cf:79:f4:e5:31:80:e8:e5:8e:ac:0a:48:
                    01:30:84:40:44:d7:cc:2a:71:78:99:b6:03:8a:e9:
                    5e:d9:04:31:a0:5f:72:00:65:f7:c2:3a:88:a5:44:
                    0a:24:cd:8d:db:7c:22:92:3f:2d:93:c2:ac:15:fb:
                    aa:5d:21:cd:21:a0:86:97:1c:45:4c:e0:aa:f0:66:
                    23:23:2b:ce:73:83:1c:09:f7:e4:9b:3c:f1:4a:89:
                    df:74:7e:a5:d0:82:fd:8f:70:dc:c5:95:e0:8f:16:
                    92:a9:76:94:f3:10:97:70
                P:   
                    00:fd:7f:53:81:1d:75:12:29:52:df:4a:9c:2e:ec:
                    e4:e7:f6:11:b7:52:3c:ef:44:00:c3:1e:3f:80:b6:
                    51:26:69:45:5d:40:22:51:fb:59:3d:8d:58:fa:bf:
                    c5:f5:ba:30:f6:cb:9b:55:6c:d7:81:3b:80:1d:34:
                    6f:f2:66:60:b7:6b:99:50:a5:a4:9f:9f:e8:04:7b:
                    10:22:c2:4f:bb:a9:d7:fe:b7:c6:1b:f8:3b:57:e7:
                    c6:a8:a6:15:0f:04:fb:83:f6:d3:c5:1e:c3:02:35:
                    54:13:5a:16:91:32:f6:75:f3:ae:2b:61:d7:2a:ef:
                    f2:22:03:19:9d:d1:48:01:c7
                Q:   
                    00:97:60:50:8f:15:23:0b:cc:b2:92:b9:82:a2:eb:
                    84:0b:f0:58:1c:f5
                G:   
                    00:f7:e1:a0:85:d6:9b:3d:de:cb:bc:ab:5c:36:b8:
                    57:b9:79:94:af:bb:fa:3a:ea:82:f9:57:4c:0b:3d:
                    07:82:67:51:59:57:8e:ba:d4:59:4f:e6:71:07:10:
                    81:80:b4:49:16:71:23:e8:4c:28:16:13:b7:cf:09:
                    32:8c:c8:a6:e1:3c:16:7a:8b:54:7c:8d:28:e0:a3:
                    ae:1e:2b:b3:a6:75:91:6e:a3:7f:0b:fa:21:35:62:
                    f1:fb:62:7a:01:24:3b:cc:a4:f1:be:a8:51:90:89:
                    a8:83:df:e1:5a:e5:9f:06:92:8b:66:5e:80:7b:55:
                    25:64:01:4c:3b:fe:cf:49:2a
        X509v3 extensions:
            X509v3 Basic Constraints: 
            CA:FALSE
            Netscape Comment: 
            OpenSSL Generated Certificate
            X509v3 Subject Key Identifier: 
            F7:EF:3A:07:F4:51:86:15:1B:42:57:C9:88:84:D0:25:B5:8F:E7:8E
            X509v3 Authority Key Identifier: 
            DirName:/CN=TheCA/OU=NOT FOR PRODUCTION/O=Apache/ST=NY/C=US
            serial:13:45

    Signature Algorithm: md5WithRSAEncryption
        92:00:1c:5e:7e:a1:a7:d4:f3:71:39:13:0a:c2:d9:d1:cf:9f:
        71:80:d8:cc:69:88:af:4b:f3:7d:03:21:00:e1:d2:07:72:bb:
        a4:c3:83:93:e4:b3:a5:f4:31:3a:ea:1b:64:62:bf:2e:04:d0:
        7a:8c:8a:58:7e:d6:a3:73:47:9e:e0:ac:13:ba:e0:7a:5a:6b:
        85:8b:14:17:ca:e9:5c:6e:af:56:35:db:e8:aa:ed:77:29:45:
        30:53:93:b4:fa:22:bf:1d:72:98:c3:23:32:ce:98:57:44:27:
        ec:07:f9:be:19:0c:92:00:67:b3:ec:95:e4:64:4f:f8:4a:e6:
        1d:9a
-----BEGIN CERTIFICATE-----
MIIECjCCA3OgAwIBAgICE0YwDQYJKoZIhvcNAQEEBQAwWDELMAkGA1UEBhMCVVMx
CzAJBgNVBAgTAk5ZMQ8wDQYDVQQKEwZBcGFjaGUxGzAZBgNVBAsTEk5PVCBGT1Ig
UFJPRFVDVElPTjEOMAwGA1UEAxMFVGhlUkEwHhcNMDkwNTI1MDUwOTUyWhcNMTAw
NTI0MDUwOTUyWjBZMQswCQYDVQQGEwJVUzELMAkGA1UECBMCTlkxDzANBgNVBAoT
BkFwYWNoZTEbMBkGA1UECxMSTk9UIEZPUiBQUk9EVUNUSU9OMQ8wDQYDVQQDEwZX
aWJibGUwggG3MIIBLAYHKoZIzjgEATCCAR8CgYEA/X9TgR11EilS30qcLuzk5/YR
t1I870QAwx4/gLZRJmlFXUAiUftZPY1Y+r/F9bow9subVWzXgTuAHTRv8mZgt2uZ
UKWkn5/oBHsQIsJPu6nX/rfGG/g7V+fGqKYVDwT7g/bTxR7DAjVUE1oWkTL2dfOu
K2HXKu/yIgMZndFIAccCFQCXYFCPFSMLzLKSuYKi64QL8Fgc9QKBgQD34aCF1ps9
3su8q1w2uFe5eZSvu/o66oL5V0wLPQeCZ1FZV4661FlP5nEHEIGAtEkWcSPoTCgW
E7fPCTKMyKbhPBZ6i1R8jSjgo64eK7OmdZFuo38L+iE1YvH7YnoBJDvMpPG+qFGQ
iaiD3+Fa5Z8GkotmXoB7VSVkAUw7/s9JKgOBhAACgYAyjV4F4rm9wYPXl2s0QH1K
TWfPefTlMYDo5Y6sCkgBMIRARNfMKnF4mbYDiule2QQxoF9yAGX3wjqIpUQKJM2N
23wikj8tk8KsFfuqXSHNIaCGlxxFTOCq8GYjIyvOc4McCffkmzzxSonfdH6l0IL9
j3DcxZXgjxaSqXaU8xCXcKOByDCBxTAJBgNVHRMEAjAAMCwGCWCGSAGG+EIBDQQf
Fh1PcGVuU1NMIEdlbmVyYXRlZCBDZXJ0aWZpY2F0ZTAdBgNVHQ4EFgQU9+86B/RR
hhUbQlfJiITQJbWP544wawYDVR0jBGQwYqFcpFowWDEOMAwGA1UEAxMFVGhlQ0Ex
GzAZBgNVBAsTEk5PVCBGT1IgUFJPRFVDVElPTjEPMA0GA1UEChMGQXBhY2hlMQsw
CQYDVQQIEwJOWTELMAkGA1UEBhMCVVOCAhNFMA0GCSqGSIb3DQEBBAUAA4GBAJIA
HF5+oafU83E5EwrC2dHPn3GA2MxpiK9L830DIQDh0gdyu6TDg5Pks6X0MTrqG2Ri
vy4E0HqMilh+1qNzR57grBO64Hpaa4WLFBfK6Vxur1Y12+iq7XcpRTBTk7T6Ir8d
cpjDIzLOmFdEJ+wH+b4ZDJIAZ7PsleRkT/hK5h2a
-----END CERTIFICATE-----
