Certificate:
    Data:
        Version: 3 (0x2)
        Serial Number: 4933 (0x1345)
        Signature Algorithm: md5WithRSAEncryption
        Issuer: CN=TheCA, OU=NOT FOR PRODUCTION, O=Apache, ST=NY, C=US
        Validity
            Not Before: May 25 05:09:50 2009 GMT
            Not After : May 24 05:09:50 2010 GMT
        Subject: C=US, ST=NY, O=Apache, OU=NOT FOR PRODUCTION, CN=TheRA
        Subject Public Key Info:
            Public Key Algorithm: rsaEncryption
            RSA Public Key: (1024 bit)
                Modulus (1024 bit):
                    00:ae:68:01:ba:97:78:27:85:35:12:0b:39:a2:c5:
                    a5:32:40:ac:7d:db:14:88:55:55:6b:66:ce:dc:f4:
                    1d:5a:22:aa:a0:16:46:4f:0e:f5:2e:db:60:d9:27:
                    3f:29:e7:38:e8:10:d6:10:76:59:f1:3e:03:fc:7d:
                    56:bb:cb:7d:7a:a0:50:e9:6c:f4:2d:c4:ef:95:ea:
                    16:10:c3:e5:53:83:27:fe:aa:cc:79:93:60:3f:7b:
                    9c:06:7a:bc:6d:da:dd:cc:58:19:4d:1f:74:bf:67:
                    46:80:7e:5b:b0:af:f3:65:41:c3:e9:6f:d7:8e:94:
                    d9:e9:e8:25:20:24:4f:5b:75
                Exponent: 65537 (0x10001)
        X509v3 extensions:
            X509v3 Basic Constraints: 
            CA:TRUE
    Signature Algorithm: md5WithRSAEncryption
        41:01:ba:26:93:25:7c:bd:c6:42:3a:bc:70:8f:58:fc:fe:60:
        2a:f5:17:4e:d6:0e:b6:d1:53:74:34:66:b7:23:4b:3e:d6:4f:
        03:78:09:4e:bb:5c:32:24:f7:11:c5:ce:51:23:0f:06:b2:85:
        41:6f:6a:bb:ef:05:18:10:31:43:1e:a9:43:14:48:d2:40:94:
        96:70:47:6b:d1:a4:06:19:82:b7:80:d8:ef:b8:25:74:d9:3a:
        a3:58:e2:e8:b4:6d:92:55:31:5b:2c:14:9d:f0:30:1f:ab:a6:
        84:3f:8b:ff:24:29:31:79:09:2d:ae:0c:3d:91:bb:39:c9:f6:
        60:34
-----BEGIN CERTIFICATE-----
MIICNzCCAaCgAwIBAgICE0UwDQYJKoZIhvcNAQEEBQAwWDEOMAwGA1UEAxMFVGhl
Q0ExGzAZBgNVBAsTEk5PVCBGT1IgUFJPRFVDVElPTjEPMA0GA1UEChMGQXBhY2hl
MQswCQYDVQQIEwJOWTELMAkGA1UEBhMCVVMwHhcNMDkwNTI1MDUwOTUwWhcNMTAw
NTI0MDUwOTUwWjBYMQswCQYDVQQGEwJVUzELMAkGA1UECBMCTlkxDzANBgNVBAoT
BkFwYWNoZTEbMBkGA1UECxMSTk9UIEZPUiBQUk9EVUNUSU9OMQ4wDAYDVQQDEwVU
aGVSQTCBnzANBgkqhkiG9w0BAQEFAAOBjQAwgYkCgYEArmgBupd4J4U1Egs5osWl
MkCsfdsUiFVVa2bO3PQdWiKqoBZGTw71Lttg2Sc/Kec46BDWEHZZ8T4D/H1Wu8t9
eqBQ6Wz0LcTvleoWEMPlU4Mn/qrMeZNgP3ucBnq8bdrdzFgZTR90v2dGgH5bsK/z
ZUHD6W/XjpTZ6eglICRPW3UCAwEAAaMQMA4wDAYDVR0TBAUwAwEB/zANBgkqhkiG
9w0BAQQFAAOBgQBBAbomkyV8vcZCOrxwj1j8/mAq9RdO1g620VN0NGa3I0s+1k8D
eAlOu1wyJPcRxc5RIw8GsoVBb2q77wUYEDFDHqlDFEjSQJSWcEdr0aQGGYK3gNjv
uCV02TqjWOLotG2SVTFbLBSd8DAfq6aEP4v/JCkxeQktrgw9kbs5yfZgNA==
-----END CERTIFICATE-----
