Certificate:
    Data:
        Version: 3 (0x2)
        Serial Number: 4935 (0x1347)
        Signature Algorithm: md5WithRSAEncryption
        Issuer: C=US, ST=NY, O=Apache, OU=NOT FOR PRODUCTION, CN=TheRA
        Validity
            Not Before: May 25 05:09:52 2009 GMT
            Not After : May 24 05:09:52 2010 GMT
        Subject: C=US, ST=NY, O=Apache, OU=NOT FOR PRODUCTION, CN=Cherry
        Subject Public Key Info:
            Public Key Algorithm: dsaEncryption
            DSA Public Key:
                pub: 
                    55:fc:93:04:c2:85:ea:e4:2d:a1:e1:e5:c8:bc:4b:
                    24:0a:2c:ed:e8:8b:58:1f:3f:e2:7d:ee:9a:36:ab:
                    4d:04:a5:c8:99:16:00:2a:7c:dd:1d:fa:12:f2:20:
                    c3:9a:b4:57:0f:b4:5e:6c:47:19:57:f6:c7:5a:73:
                    f3:33:10:20:e6:15:cf:1f:c9:45:b2:ce:04:ed:8f:
                    45:5a:0e:83:65:ac:0f:65:48:26:38:37:bd:f9:9c:
                    4e:f1:a3:7b:30:24:c9:fb:d7:82:01:38:3a:b9:ad:
                    84:33:fb:f2:32:07:d7:a5:ac:fe:51:13:0f:4c:7a:
                    79:ff:2e:ad:72:66:07:5e
                P:   
                    00:fd:7f:53:81:1d:75:12:29:52:df:4a:9c:2e:ec:
                    e4:e7:f6:11:b7:52:3c:ef:44:00:c3:1e:3f:80:b6:
                    51:26:69:45:5d:40:22:51:fb:59:3d:8d:58:fa:bf:
                    c5:f5:ba:30:f6:cb:9b:55:6c:d7:81:3b:80:1d:34:
                    6f:f2:66:60:b7:6b:99:50:a5:a4:9f:9f:e8:04:7b:
                    10:22:c2:4f:bb:a9:d7:fe:b7:c6:1b:f8:3b:57:e7:
                    c6:a8:a6:15:0f:04:fb:83:f6:d3:c5:1e:c3:02:35:
                    54:13:5a:16:91:32:f6:75:f3:ae:2b:61:d7:2a:ef:
                    f2:22:03:19:9d:d1:48:01:c7
                Q:   
                    00:97:60:50:8f:15:23:0b:cc:b2:92:b9:82:a2:eb:
                    84:0b:f0:58:1c:f5
                G:   
                    00:f7:e1:a0:85:d6:9b:3d:de:cb:bc:ab:5c:36:b8:
                    57:b9:79:94:af:bb:fa:3a:ea:82:f9:57:4c:0b:3d:
                    07:82:67:51:59:57:8e:ba:d4:59:4f:e6:71:07:10:
                    81:80:b4:49:16:71:23:e8:4c:28:16:13:b7:cf:09:
                    32:8c:c8:a6:e1:3c:16:7a:8b:54:7c:8d:28:e0:a3:
                    ae:1e:2b:b3:a6:75:91:6e:a3:7f:0b:fa:21:35:62:
                    f1:fb:62:7a:01:24:3b:cc:a4:f1:be:a8:51:90:89:
                    a8:83:df:e1:5a:e5:9f:06:92:8b:66:5e:80:7b:55:
                    25:64:01:4c:3b:fe:cf:49:2a
        X509v3 extensions:
            X509v3 Basic Constraints: 
            CA:FALSE
            Netscape Comment: 
            OpenSSL Generated Certificate
            X509v3 Subject Key Identifier: 
            B1:36:B8:EC:78:7B:DB:E1:23:63:5A:06:86:3D:13:11:95:E5:1F:45
            X509v3 Authority Key Identifier: 
            DirName:/CN=TheCA/OU=NOT FOR PRODUCTION/O=Apache/ST=NY/C=US
            serial:13:45

    Signature Algorithm: md5WithRSAEncryption
        40:1b:a8:f2:6a:7d:65:d0:25:3e:a5:f7:95:1d:a4:9e:fa:ee:
        0c:04:dd:35:9e:a0:31:1c:d7:cb:4e:c6:e5:e8:66:9e:85:f6:
        88:93:76:ae:e6:0e:32:cc:e7:4a:be:7c:79:9f:6b:bc:48:d7:
        a6:3f:d8:4b:df:14:19:fd:fc:68:85:ed:49:08:aa:8a:0a:1e:
        f9:f1:62:60:bb:31:d0:e4:d5:d8:69:a2:d5:09:60:5e:3c:10:
        20:ae:55:67:75:1a:5f:d1:aa:05:7e:b1:df:49:46:83:4b:30:
        32:7c:13:69:a3:fe:b8:36:95:a5:fb:44:3f:b1:9a:57:00:66:
        2c:ec
-----BEGIN CERTIFICATE-----
MIIECjCCA3OgAwIBAgICE0cwDQYJKoZIhvcNAQEEBQAwWDELMAkGA1UEBhMCVVMx
CzAJBgNVBAgTAk5ZMQ8wDQYDVQQKEwZBcGFjaGUxGzAZBgNVBAsTEk5PVCBGT1Ig
UFJPRFVDVElPTjEOMAwGA1UEAxMFVGhlUkEwHhcNMDkwNTI1MDUwOTUyWhcNMTAw
NTI0MDUwOTUyWjBZMQswCQYDVQQGEwJVUzELMAkGA1UECBMCTlkxDzANBgNVBAoT
BkFwYWNoZTEbMBkGA1UECxMSTk9UIEZPUiBQUk9EVUNUSU9OMQ8wDQYDVQQDEwZD
aGVycnkwggG3MIIBLAYHKoZIzjgEATCCAR8CgYEA/X9TgR11EilS30qcLuzk5/YR
t1I870QAwx4/gLZRJmlFXUAiUftZPY1Y+r/F9bow9subVWzXgTuAHTRv8mZgt2uZ
UKWkn5/oBHsQIsJPu6nX/rfGG/g7V+fGqKYVDwT7g/bTxR7DAjVUE1oWkTL2dfOu
K2HXKu/yIgMZndFIAccCFQCXYFCPFSMLzLKSuYKi64QL8Fgc9QKBgQD34aCF1ps9
3su8q1w2uFe5eZSvu/o66oL5V0wLPQeCZ1FZV4661FlP5nEHEIGAtEkWcSPoTCgW
E7fPCTKMyKbhPBZ6i1R8jSjgo64eK7OmdZFuo38L+iE1YvH7YnoBJDvMpPG+qFGQ
iaiD3+Fa5Z8GkotmXoB7VSVkAUw7/s9JKgOBhAACgYBV/JMEwoXq5C2h4eXIvEsk
Cizt6ItYHz/ife6aNqtNBKXImRYAKnzdHfoS8iDDmrRXD7RebEcZV/bHWnPzMxAg
5hXPH8lFss4E7Y9FWg6DZawPZUgmODe9+ZxO8aN7MCTJ+9eCATg6ua2EM/vyMgfX
paz+URMPTHp5/y6tcmYHXqOByDCBxTAJBgNVHRMEAjAAMCwGCWCGSAGG+EIBDQQf
Fh1PcGVuU1NMIEdlbmVyYXRlZCBDZXJ0aWZpY2F0ZTAdBgNVHQ4EFgQUsTa47Hh7
2+EjY1oGhj0TEZXlH0UwawYDVR0jBGQwYqFcpFowWDEOMAwGA1UEAxMFVGhlQ0Ex
GzAZBgNVBAsTEk5PVCBGT1IgUFJPRFVDVElPTjEPMA0GA1UEChMGQXBhY2hlMQsw
CQYDVQQIEwJOWTELMAkGA1UEBhMCVVOCAhNFMA0GCSqGSIb3DQEBBAUAA4GBAEAb
qPJqfWXQJT6l95UdpJ767gwE3TWeoDEc18tOxuXoZp6F9oiTdq7mDjLM50q+fHmf
a7xI16Y/2EvfFBn9/GiF7UkIqooKHvnxYmC7MdDk1dhpotUJYF48ECCuVWd1Gl/R
qgV+sd9JRoNLMDJ8E2mj/rg2laX7RD+xmlcAZizs
-----END CERTIFICATE-----
